Certificate:
    Data:
        Version: 3 (0x2)
        Serial Number: 1 (0x1)
        Signature Algorithm: sha1WithRSAEncryption
        Issuer: C=BE, ST=Belgium, L=Bruxelles, O=Otiluke, OU=Otiluke, CN=Otiluke/emailAddress=lachrist@vub.ac.be
        Validity
            Not Before: Jul 20 07:19:17 2015 GMT
            Not After : Jul 19 07:19:17 2016 GMT
        Subject: CN=yolo
        Subject Public Key Info:
            Public Key Algorithm: rsaEncryption
            RSA Public Key: (2048 bit)
                Modulus (2048 bit):
                    00:c3:80:15:7a:b9:be:4f:24:28:0c:c0:97:15:fa:
                    a6:8a:0d:5b:f8:b3:98:43:0b:f7:75:92:1e:82:36:
                    36:7d:20:fe:bd:84:83:9c:29:64:75:53:e8:dc:f8:
                    9e:35:bb:00:46:00:e8:d1:a8:81:ff:f7:6b:d6:23:
                    ed:49:06:c4:27:c8:87:61:4f:23:9c:9b:ac:b4:84:
                    86:9f:b7:79:2d:69:4a:ad:8f:ea:be:51:71:70:b7:
                    43:98:d3:94:c2:f9:8e:03:df:99:c2:34:9f:11:30:
                    c0:1a:85:09:fc:8d:9b:cc:97:9b:3f:25:08:ee:e4:
                    3c:d3:cd:2e:e7:c4:39:ac:c2:cb:54:46:9e:34:66:
                    f4:b7:7b:92:c5:2b:91:5c:a1:7a:e8:3c:97:6f:ab:
                    63:da:d9:48:e2:24:cf:c1:c5:2f:26:6b:67:2d:24:
                    92:c3:0c:fd:49:b4:18:d8:3e:a4:21:2a:8b:cd:f5:
                    93:a7:18:6b:b8:bf:90:6b:93:25:2a:19:57:68:59:
                    05:39:8a:d4:23:60:ed:19:1a:34:37:6d:89:d3:e6:
                    d1:8b:d3:45:5b:34:0b:b2:27:68:25:51:e0:ae:1f:
                    7f:ea:a9:ba:0e:2a:22:70:bd:5b:a2:73:12:ca:ac:
                    7b:0f:b2:0c:84:fc:d2:14:c0:76:3b:d6:a9:d1:97:
                    5c:59
                Exponent: 65537 (0x10001)
        X509v3 extensions:
            X509v3 Basic Constraints: 
                CA:FALSE
            Netscape Comment: 
                OpenSSL Generated Certificate
            X509v3 Subject Key Identifier: 
                F6:EC:28:F6:E5:AA:C2:4A:6E:33:2B:3C:D8:12:D1:60:E1:8B:07:B2
            X509v3 Authority Key Identifier: 
                keyid:DB:1C:76:F3:90:69:88:E2:36:9D:53:C7:B8:34:33:11:77:8F:00:CA

    Signature Algorithm: sha1WithRSAEncryption
        9e:58:7e:87:a1:4f:35:41:d6:e2:8e:04:5b:71:85:59:76:7d:
        cc:b7:d7:2b:51:de:06:33:8a:7a:58:80:95:64:ac:75:e3:6d:
        3b:24:94:ea:bc:00:4e:f1:95:58:bb:9e:d6:30:e1:ca:48:6d:
        3d:79:e9:19:56:96:44:c5:ce:4f:db:d6:de:c8:28:92:db:48:
        d6:63:fc:05:79:2c:a6:fe:7b:6f:81:a8:c6:e6:c9:7f:1e:89:
        1d:e7:dd:8a:e8:4c:81:fc:f8:31:51:5f:33:02:94:09:43:ed:
        8c:03:b7:ad:ef:ad:60:e6:65:f8:c1:a6:47:c6:e7:e2:c7:dc:
        cf:00:43:0e:a6:2c:81:cd:56:a1:fd:d7:fa:39:2a:db:e7:82:
        48:00:7e:33:5c:00:2c:aa:4f:9d:4d:0e:57:be:f9:be:ca:1a:
        77:15:7b:22:36:05:08:9b:c8:16:a0:ff:40:0b:77:48:09:db:
        7a:d5:14:32:44:63:54:d8:1a:6a:c4:ca:ad:f7:05:5e:56:af:
        b0:28:4c:ea:db:5f:5b:1f:69:81:1f:7b:ae:0f:f5:2b:93:d7:
        88:3e:20:cd:03:94:51:f1:97:01:c0:04:d5:c2:5f:c5:d1:6e:
        f4:1f:9c:c9:1f:d1:0b:bb:05:6b:63:85:db:38:16:01:fd:3d:
        db:09:d5:a9
-----BEGIN CERTIFICATE-----
MIIDkjCCAnqgAwIBAgIBATANBgkqhkiG9w0BAQUFADCBjDELMAkGA1UEBhMCQkUx
EDAOBgNVBAgTB0JlbGdpdW0xEjAQBgNVBAcTCUJydXhlbGxlczEQMA4GA1UEChMH
T3RpbHVrZTEQMA4GA1UECxMHT3RpbHVrZTEQMA4GA1UEAxMHT3RpbHVrZTEhMB8G
CSqGSIb3DQEJARYSbGFjaHJpc3RAdnViLmFjLmJlMB4XDTE1MDcyMDA3MTkxN1oX
DTE2MDcxOTA3MTkxN1owDzENMAsGA1UEAxMEeW9sbzCCASIwDQYJKoZIhvcNAQEB
BQADggEPADCCAQoCggEBAMOAFXq5vk8kKAzAlxX6pooNW/izmEML93WSHoI2Nn0g
/r2Eg5wpZHVT6Nz4njW7AEYA6NGogf/3a9Yj7UkGxCfIh2FPI5ybrLSEhp+3eS1p
Sq2P6r5RcXC3Q5jTlML5jgPfmcI0nxEwwBqFCfyNm8yXmz8lCO7kPNPNLufEOazC
y1RGnjRm9Ld7ksUrkVyheug8l2+rY9rZSOIkz8HFLyZrZy0kksMM/Um0GNg+pCEq
i831k6cYa7i/kGuTJSoZV2hZBTmK1CNg7RkaNDdtidPm0YvTRVs0C7InaCVR4K4f
f+qpug4qInC9W6JzEsqsew+yDIT80hTAdjvWqdGXXFkCAwEAAaN7MHkwCQYDVR0T
BAIwADAsBglghkgBhvhCAQ0EHxYdT3BlblNTTCBHZW5lcmF0ZWQgQ2VydGlmaWNh
dGUwHQYDVR0OBBYEFPbsKPblqsJKbjMrPNgS0WDhiweyMB8GA1UdIwQYMBaAFNsc
dvOQaYjiNp1Tx7g0MxF3jwDKMA0GCSqGSIb3DQEBBQUAA4IBAQCeWH6HoU81Qdbi
jgRbcYVZdn3Mt9crUd4GM4p6WICVZKx14207JJTqvABO8ZVYu57WMOHKSG09eekZ
VpZExc5P29beyCiS20jWY/wFeSym/ntvgajG5sl/Hokd592K6EyB/PgxUV8zApQJ
Q+2MA7et761g5mX4waZHxufix9zPAEMOpiyBzVah/df6OSrb54JIAH4zXAAsqk+d
TQ5Xvvm+yhp3FXsiNgUIm8gWoP9AC3dICdt61RQyRGNU2BpqxMqt9wVeVq+wKEzq
219bH2mBH3uuD/Urk9eIPiDNA5RR8ZcBwATVwl/F0W70H5zJH9ELuwVrY4XbOBYB
/T3bCdWp
-----END CERTIFICATE-----
