Certificate:
    Data:
        Version: 1 (0x0)
        Serial Number: 12 (0xc)
        Signature Algorithm: sha256WithRSAEncryption
        Issuer: C=BE, ST=Belgium, L=Bxl, O=Otiluke, OU=Otiluke, CN=Otiluke/emailAddress=la
        Validity
            Not Before: Jul 22 14:14:27 2015 GMT
            Not After : Jul 19 14:14:27 2025 GMT
        Subject: CN=en.wikipedia.org
        Subject Public Key Info:
            Public Key Algorithm: rsaEncryption
            RSA Public Key: (2048 bit)
                Modulus (2048 bit):
                    00:f1:51:6c:1d:12:5d:57:bf:25:b0:2e:2e:81:2d:
                    6a:08:38:5c:66:09:25:29:f3:aa:9d:90:f7:d0:91:
                    2c:18:4f:85:bb:28:de:5f:a1:e1:94:d7:ca:4a:0b:
                    0d:b5:af:82:87:1b:74:df:27:b3:f3:f2:79:be:03:
                    ee:4b:7b:1a:09:01:ea:97:46:4e:59:86:1a:17:53:
                    5b:c4:fd:c6:90:60:71:54:5e:de:e6:e3:eb:9a:92:
                    a0:a4:f0:8d:1a:3f:29:93:83:11:b3:21:8b:e6:89:
                    d5:1a:8d:b6:df:86:d7:5f:6b:19:bd:d3:18:5e:15:
                    15:1c:9a:38:bc:08:e5:9b:a2:4e:5c:6f:f6:8a:d0:
                    37:32:98:48:c5:51:f1:ef:d2:3f:97:f1:1d:7e:2d:
                    8d:a7:3b:9c:21:be:aa:a8:f8:a3:bb:31:11:c3:df:
                    d7:b4:7c:e2:3f:24:aa:a0:b3:41:34:5b:54:4e:68:
                    f5:83:a2:3b:e8:a2:d7:52:fd:17:1f:d5:37:36:85:
                    98:77:1e:06:20:4f:a9:66:58:b3:f7:35:85:ec:bc:
                    12:53:99:b8:88:20:bf:c7:7d:f4:7a:89:b9:0f:5f:
                    2b:eb:2b:4e:52:2b:27:b7:b9:c1:33:ec:e5:c8:cf:
                    9a:9c:b5:e1:c3:86:7f:a1:ef:98:e1:f7:1e:28:30:
                    c6:dd
                Exponent: 65537 (0x10001)
    Signature Algorithm: sha256WithRSAEncryption
        1b:cd:ad:a4:e3:44:d5:03:b3:6c:9d:97:83:0a:47:f1:40:20:
        9a:01:4e:b6:af:87:84:20:91:30:75:03:67:47:2a:25:bb:a6:
        8d:84:8f:b5:58:8b:b3:a7:be:61:62:b7:3e:b2:31:f4:b6:64:
        28:f8:99:c4:65:6a:b2:b3:d7:7e:1c:55:4d:9b:8a:00:3c:ef:
        50:60:71:f3:e6:91:c9:c1:81:6a:c9:6e:fa:ed:10:60:4b:69:
        76:d6:ae:e7:e8:f4:f3:e3:64:0e:1a:82:d6:ee:cb:ff:64:e6:
        6c:e7:8d:67:b1:ce:1c:82:d0:cb:13:ea:89:dd:8b:9a:bc:8a:
        4c:2a:75:75:c6:c4:2a:ff:51:87:00:bb:ca:61:92:e1:cc:f5:
        00:e5:74:29:2d:f9:ab:4e:3f:4b:18:b6:03:9c:ae:cf:fd:d4:
        88:15:78:fc:81:a4:e6:d3:96:2d:37:5a:27:00:37:0b:9d:1d:
        af:dd:d8:c9:c8:d9:28:57:8b:e9:97:24:84:a1:08:30:fd:74:
        67:e0:87:b3:37:60:90:ee:b1:34:b3:51:62:b8:c1:39:d0:85:
        c0:48:24:be:46:31:69:ec:10:8d:40:91:f2:f5:94:c2:26:00:
        f2:b4:ca:98:49:7b:e1:ce:48:13:ac:a7:1c:02:aa:b9:61:e8:
        76:1b:05:86
-----BEGIN CERTIFICATE-----
MIIDBTCCAe0CAQwwDQYJKoZIhvcNAQELBQAwdjELMAkGA1UEBhMCQkUxEDAOBgNV
BAgTB0JlbGdpdW0xDDAKBgNVBAcTA0J4bDEQMA4GA1UEChMHT3RpbHVrZTEQMA4G
A1UECxMHT3RpbHVrZTEQMA4GA1UEAxMHT3RpbHVrZTERMA8GCSqGSIb3DQEJARYC
bGEwHhcNMTUwNzIyMTQxNDI3WhcNMjUwNzE5MTQxNDI3WjAbMRkwFwYDVQQDExBl
bi53aWtpcGVkaWEub3JnMIIBIjANBgkqhkiG9w0BAQEFAAOCAQ8AMIIBCgKCAQEA
8VFsHRJdV78lsC4ugS1qCDhcZgklKfOqnZD30JEsGE+FuyjeX6HhlNfKSgsNta+C
hxt03yez8/J5vgPuS3saCQHql0ZOWYYaF1NbxP3GkGBxVF7e5uPrmpKgpPCNGj8p
k4MRsyGL5onVGo2234bXX2sZvdMYXhUVHJo4vAjlm6JOXG/2itA3MphIxVHx79I/
l/Edfi2NpzucIb6qqPijuzERw9/XtHziPySqoLNBNFtUTmj1g6I76KLXUv0XH9U3
NoWYdx4GIE+pZliz9zWF7LwSU5m4iCC/x330eom5D18r6ytOUisnt7nBM+zlyM+a
nLXhw4Z/oe+Y4fceKDDG3QIDAQABMA0GCSqGSIb3DQEBCwUAA4IBAQAbza2k40TV
A7NsnZeDCkfxQCCaAU62r4eEIJEwdQNnRyolu6aNhI+1WIuzp75hYrc+sjH0tmQo
+JnEZWqys9d+HFVNm4oAPO9QYHHz5pHJwYFqyW767RBgS2l21q7n6PTz42QOGoLW
7sv/ZOZs541nsc4cgtDLE+qJ3YuavIpMKnV1xsQq/1GHALvKYZLhzPUA5XQpLfmr
Tj9LGLYDnK7P/dSIFXj8gaTm05YtN1onADcLnR2v3djJyNkoV4vplySEoQgw/XRn
4IezN2CQ7rE0s1FiuME50IXASCS+RjFp7BCNQJHy9ZTCJgDytMqYSXvhzkgTrKcc
Aqq5Yeh2GwWG
-----END CERTIFICATE-----
