Certificate:
    Data:
        Version: 1 (0x0)
        Serial Number: 13 (0xd)
        Signature Algorithm: sha256WithRSAEncryption
        Issuer: C=BE, ST=Belgium, L=Bxl, O=Otiluke, OU=Otiluke, CN=Otiluke/emailAddress=la
        Validity
            Not Before: Jul 22 18:17:04 2015 GMT
            Not After : Jul 19 18:17:04 2025 GMT
        Subject: CN=grunt
        Subject Public Key Info:
            Public Key Algorithm: rsaEncryption
            RSA Public Key: (2048 bit)
                Modulus (2048 bit):
                    00:be:dd:4e:a7:41:3d:fe:2b:d4:96:ed:35:a4:f1:
                    03:12:a9:46:2d:ec:c7:8d:1a:4f:7a:20:75:09:05:
                    61:19:a0:5e:2d:a7:d3:3a:a1:e2:af:a4:e1:45:a5:
                    5a:a4:c6:96:27:b8:52:73:63:f9:5c:01:4d:8c:76:
                    8d:fc:06:39:ba:d1:16:94:d7:b3:48:e1:79:1b:8b:
                    b2:9e:d0:d7:7d:50:41:e3:ed:0a:ec:64:33:7f:af:
                    fd:b0:b1:19:4b:44:d0:3e:af:19:7c:93:f0:2d:6a:
                    ec:80:11:b4:fa:49:75:f1:13:1e:16:12:ca:8c:e2:
                    a2:8c:27:3e:a0:94:3d:e3:54:4f:9d:2d:06:9c:fe:
                    ce:00:46:b4:24:58:3f:4c:bd:1e:0d:0b:da:66:42:
                    f9:99:3f:20:a3:ca:66:1a:b2:23:cf:a8:d2:04:6d:
                    aa:33:54:4e:52:e3:13:8c:21:df:f2:c3:8c:59:7d:
                    9e:25:6d:e1:01:26:76:2e:38:e0:cb:d5:5f:8b:d8:
                    59:e4:33:1c:81:5e:cb:06:45:49:df:10:df:72:1a:
                    91:1f:48:85:ab:0a:98:7b:1b:5e:fc:97:47:f5:6f:
                    ca:3b:cd:28:0f:8c:bd:cd:ea:53:18:d9:43:91:30:
                    7b:ab:be:a8:ad:97:d8:59:a8:bb:7d:62:76:3b:85:
                    78:57
                Exponent: 65537 (0x10001)
    Signature Algorithm: sha256WithRSAEncryption
        18:92:af:bc:09:72:f7:4f:46:74:ab:df:29:63:97:6e:27:7c:
        50:ca:87:28:81:6d:90:c1:eb:a2:47:07:97:89:03:9e:ea:d3:
        bf:d3:0f:4b:6b:e2:6d:c1:ce:56:43:80:d1:5d:f2:d7:14:84:
        b1:9c:4f:8a:e7:88:c3:6f:16:38:6a:4a:c5:93:fa:a7:de:33:
        4b:ea:c0:7b:26:fe:23:15:e5:96:3c:06:2f:bc:5f:01:69:ac:
        77:9e:78:95:fb:ca:0d:ef:ac:c6:2b:d6:85:92:1f:ea:2e:f2:
        fb:f7:d9:02:43:95:52:6d:23:97:ee:b0:23:c4:e7:b1:6b:0e:
        1f:6b:5b:63:1b:e4:97:cb:30:ca:45:62:1b:69:44:38:20:1d:
        60:12:e2:00:24:26:e5:df:55:7a:c6:d8:bb:b6:05:53:69:12:
        9a:d0:a7:7e:af:db:42:8e:25:0c:12:8d:21:89:61:a7:0f:f1:
        01:1a:98:81:c6:d1:45:e2:c7:bd:0b:5d:37:6e:48:0b:23:a3:
        b9:42:57:02:09:77:b1:3d:8a:75:13:ad:5b:a8:42:eb:34:9c:
        d1:2b:93:c0:66:b1:f3:58:59:ea:fc:4c:56:69:f6:96:55:a5:
        42:75:85:4f:2e:0d:c7:76:8b:7c:c5:3c:21:bd:0e:a2:12:49:
        c9:e5:58:81
-----BEGIN CERTIFICATE-----
MIIC+jCCAeICAQ0wDQYJKoZIhvcNAQELBQAwdjELMAkGA1UEBhMCQkUxEDAOBgNV
BAgTB0JlbGdpdW0xDDAKBgNVBAcTA0J4bDEQMA4GA1UEChMHT3RpbHVrZTEQMA4G
A1UECxMHT3RpbHVrZTEQMA4GA1UEAxMHT3RpbHVrZTERMA8GCSqGSIb3DQEJARYC
bGEwHhcNMTUwNzIyMTgxNzA0WhcNMjUwNzE5MTgxNzA0WjAQMQ4wDAYDVQQDEwVn
cnVudDCCASIwDQYJKoZIhvcNAQEBBQADggEPADCCAQoCggEBAL7dTqdBPf4r1Jbt
NaTxAxKpRi3sx40aT3ogdQkFYRmgXi2n0zqh4q+k4UWlWqTGlie4UnNj+VwBTYx2
jfwGObrRFpTXs0jheRuLsp7Q131QQePtCuxkM3+v/bCxGUtE0D6vGXyT8C1q7IAR
tPpJdfETHhYSyozioownPqCUPeNUT50tBpz+zgBGtCRYP0y9Hg0L2mZC+Zk/IKPK
ZhqyI8+o0gRtqjNUTlLjE4wh3/LDjFl9niVt4QEmdi444MvVX4vYWeQzHIFeywZF
Sd8Q33IakR9IhasKmHsbXvyXR/VvyjvNKA+Mvc3qUxjZQ5Ewe6u+qK2X2Fmou31i
djuFeFcCAwEAATANBgkqhkiG9w0BAQsFAAOCAQEAGJKvvAly909GdKvfKWOXbid8
UMqHKIFtkMHrokcHl4kDnurTv9MPS2vibcHOVkOA0V3y1xSEsZxPiueIw28WOGpK
xZP6p94zS+rAeyb+IxXlljwGL7xfAWmsd554lfvKDe+sxivWhZIf6i7y+/fZAkOV
Um0jl+6wI8TnsWsOH2tbYxvkl8swykViG2lEOCAdYBLiACQm5d9VesbYu7YFU2kS
mtCnfq/bQo4lDBKNIYlhpw/xARqYgcbRReLHvQtdN25ICyOjuUJXAgl3sT2KdROt
W6hC6zSc0SuTwGax81hZ6vxMVmn2llWlQnWFTy4Nx3aLfMU8Ib0OohJJyeVYgQ==
-----END CERTIFICATE-----
